Certificate:
    Data:
        Version: 3 (0x2)
        Serial Number:
            c7:fe:8a:9d:cd:07:06:3b:1f:46:e6:d6:af:21:81:14:4c:cf:17:99
        Signature Algorithm: sha256WithRSAEncryption
        Issuer: C=IE, ST=Laighin, O=openssl-ech, CN=ca
        Validity
            Not Before: Mar 31 13:28:59 2024 GMT
            Not After : Mar 29 13:28:59 2034 GMT
        Subject: C=IE, ST=Laighin, O=openssl-ech, CN=bar.example.com
        Subject Public Key Info:
            Public Key Algorithm: rsaEncryption
                Public-Key: (2048 bit)
                Modulus:
                    00:e4:a6:e3:03:49:97:eb:9e:de:87:d5:ac:d0:8c:
                    82:1f:17:3a:6f:51:b6:c1:50:77:19:89:97:cc:ed:
                    e4:f1:fd:42:64:a1:b5:0d:da:83:80:c4:6d:02:60:
                    47:ef:98:b7:2a:cc:14:13:27:f0:27:94:93:97:a4:
                    de:2a:d8:a2:ee:23:74:ca:87:cb:de:88:23:4a:2a:
                    2e:8f:56:54:50:82:d4:a9:9b:65:27:c5:e0:16:ca:
                    f4:59:b4:03:69:b8:13:23:57:6f:3b:88:8a:57:c7:
                    3f:c8:0f:46:80:07:36:9c:a1:84:b9:e5:46:81:ec:
                    25:9c:cc:7d:c9:6f:50:42:51:5d:07:5f:78:1f:55:
                    9d:e2:1b:35:55:f8:92:35:0a:6b:88:b5:fa:85:a9:
                    be:f8:4d:fd:63:1b:2d:9f:8d:28:64:8c:40:f4:68:
                    49:72:5a:15:19:b9:f8:1a:b3:b9:c9:2f:30:df:21:
                    04:6e:6b:93:ec:c9:04:02:9b:f3:95:fb:8b:16:67:
                    63:98:e9:93:e8:33:b6:ae:87:c2:76:29:d3:93:e6:
                    15:10:ca:fb:76:b6:16:bd:16:14:27:4d:d7:f0:d2:
                    1c:46:38:9f:ef:19:58:50:d2:45:a5:d8:6b:1a:df:
                    0e:0d:8e:45:39:cd:78:d1:32:a8:0b:17:45:45:85:
                    09:43
                Exponent: 65537 (0x10001)
        X509v3 extensions:
            X509v3 Basic Constraints: 
                CA:FALSE
            X509v3 Subject Key Identifier: 
                69:2A:BF:09:0E:6E:61:15:8B:A4:89:D3:13:E6:E9:A8:68:CB:D6:2E
            X509v3 Authority Key Identifier: 
                47:02:9C:55:99:30:1E:73:B1:B8:52:55:ED:47:11:80:75:D1:21:63
            X509v3 Subject Alternative Name: 
                DNS:*.bar.example.com, DNS:bar.example.com
    Signature Algorithm: sha256WithRSAEncryption
    Signature Value:
        0f:16:2d:9f:ef:4b:a3:80:d6:23:72:64:fc:ce:7d:4c:c5:b3:
        be:d2:7a:64:1a:be:d2:c9:f6:6d:48:fc:7c:ec:5b:f0:ae:6a:
        88:e4:7e:ff:8a:b6:15:4f:72:03:49:70:0f:ad:d2:2e:65:f9:
        81:7f:0d:69:81:3a:3c:f3:ee:01:d8:44:d5:41:9f:35:89:88:
        2d:38:a0:66:6d:33:24:1a:05:65:6a:3a:8b:45:e9:92:c2:77:
        cc:30:40:eb:90:10:20:52:8a:9f:fb:3c:18:1d:14:6e:6d:93:
        ed:cd:40:0b:06:e9:9e:18:91:ff:96:8e:76:6c:dc:04:b9:c7:
        b0:a7:5b:50:9e:ed:45:46:dd:c7:2d:76:9f:a8:b5:2d:a2:58:
        a8:60:82:fb:79:ec:b5:0e:d4:b8:04:50:5d:37:f2:36:ae:e8:
        ce:e6:a6:f6:fc:48:a3:67:eb:39:55:12:2b:9e:af:17:65:01:
        03:ff:39:68:c1:b4:76:ab:6a:93:98:72:9e:a6:c6:f4:82:07:
        03:a8:10:13:d6:d2:7b:ce:70:73:73:56:79:e7:58:37:5f:a1:
        c9:33:35:51:7f:29:85:a6:b4:e6:d5:74:7d:ae:c3:6a:f6:aa:
        46:f5:f0:9f:a0:be:fa:04:86:78:bc:d1:a8:dc:2d:f8:24:46:
        82:5f:34:f9
-----BEGIN CERTIFICATE-----
MIIDnDCCAoSgAwIBAgIVAMf+ip3NBwY7H0bm1q8hgRRMzxeZMA0GCSqGSIb3DQEB
CwUAMEIxCzAJBgNVBAYTAklFMRAwDgYDVQQIDAdMYWlnaGluMRQwEgYDVQQKDAtv
cGVuc3NsLWVjaDELMAkGA1UEAwwCY2EwHhcNMjQwMzMxMTMyODU5WhcNMzQwMzI5
MTMyODU5WjBPMQswCQYDVQQGEwJJRTEQMA4GA1UECAwHTGFpZ2hpbjEUMBIGA1UE
CgwLb3BlbnNzbC1lY2gxGDAWBgNVBAMMD2Jhci5leGFtcGxlLmNvbTCCASIwDQYJ
KoZIhvcNAQEBBQADggEPADCCAQoCggEBAOSm4wNJl+ue3ofVrNCMgh8XOm9RtsFQ
dxmJl8zt5PH9QmShtQ3ag4DEbQJgR++YtyrMFBMn8CeUk5ek3irYou4jdMqHy96I
I0oqLo9WVFCC1KmbZSfF4BbK9Fm0A2m4EyNXbzuIilfHP8gPRoAHNpyhhLnlRoHs
JZzMfclvUEJRXQdfeB9VneIbNVX4kjUKa4i1+oWpvvhN/WMbLZ+NKGSMQPRoSXJa
FRm5+BqzuckvMN8hBG5rk+zJBAKb85X7ixZnY5jpk+gztq6HwnYp05PmFRDK+3a2
Fr0WFCdN1/DSHEY4n+8ZWFDSRaXYaxrfDg2ORTnNeNEyqAsXRUWFCUMCAwEAAaN8
MHowCQYDVR0TBAIwADAdBgNVHQ4EFgQUaSq/CQ5uYRWLpInTE+bpqGjL1i4wHwYD
VR0jBBgwFoAURwKcVZkwHnOxuFJV7UcRgHXRIWMwLQYDVR0RBCYwJIIRKi5iYXIu
ZXhhbXBsZS5jb22CD2Jhci5leGFtcGxlLmNvbTANBgkqhkiG9w0BAQsFAAOCAQEA
DxYtn+9Lo4DWI3Jk/M59TMWzvtJ6ZBq+0sn2bUj8fOxb8K5qiOR+/4q2FU9yA0lw
D63SLmX5gX8NaYE6PPPuAdhE1UGfNYmILTigZm0zJBoFZWo6i0XpksJ3zDBA65AQ
IFKKn/s8GB0Ubm2T7c1ACwbpnhiR/5aOdmzcBLnHsKdbUJ7tRUbdxy12n6i1LaJY
qGCC+3nstQ7UuARQXTfyNq7ozuam9vxIo2frOVUSK56vF2UBA/85aMG0dqtqk5hy
nqbG9IIHA6gQE9bSe85wc3NWeedYN1+hyTM1UX8phaa05tV0fa7DavaqRvXwn6C+
+gSGeLzRqNwt+CRGgl80+Q==
-----END CERTIFICATE-----
