-----BEGIN PRIVATE KEY-----
MIIEvAIBADANBgkqhkiG9w0BAQEFAASCBKYwggSiAgEAAoIBAQDC4HtymiaBpB1k
uV7DtNndZ+QrS7aPii+2/tSHLcg8a1O020u1U6cW+kC1nmsHM3L9wZHTInGEI8Ix
thpzAn0D+OnJwiYXz5bhZHxD/K9t3XuDG8Tec48TfgQ1FXQGRtXlc326z7tlbLVA
AsasdtPSiQwbPTVzEE5EJUgCMNbiXVLSXeqQ5FPrWSJBxDPtBAV0hxc6dJ/mmc57
4llDSpaoPRaayBxrDH9nELoTYt7an98ITsiDLyw4y5v6GcR2p6MVw6fEw7fzAUKi
PqOH/t2XNRYT+wvecqkQhn+zX9Tr/AWP74Usk2wkqEIqHsiwO7lwhHBFW8qwOJRm
0Kuvn/I1AgMBAAECgf8RiLaa4YgnYIrg4nFosyszkbt3Dyn/hTYd4pTHx+OBQg1r
rycEU+7UqDl+2Y6YOpo5UfI4Hv7I9bVciu0bznrCNLis9GgEB7yu9rjcF4nyJ3NZ
uCjOb2WH9O+2HIUSiJvbVS3zV37+BpLs0RbkSbo92M8SnD4JyYIRxvowMCpZly3I
mn70SA96OczvHpX40g+T6JetrZoBC+6BZcqPNid9DzzJonIpDPwx+1+eaHn208KG
gBbTrJLXUjRw+/Yl0mGMj6kSwH+UoOurq0b7KPrOiOg7wP0AoOgZYwuZ6CRzsn8Q
WS7UR7HHjfzjmCGA/76QJW3Q6Oa19mPTOJ8J53cCgYEA9UIhQnxluuplJi7uNYa2
8yinQLRUDsAh1nOvU2Q1AOk9wi6pSyqpyoyvtKNWxDmPuP7UWsa7GsJiOSLGJp11
nFYXp2Juk7HRJwNJholJeUq+ioBCF8kclL2eIV9BKvV4O6XOzCfpo2YJYuAnNIjd
lQR/DlWblx94l5Ainq5R0xcCgYEAy2l3/BN/ncUez1MQowmzubWlkiTGoTRJKLzA
QhFktGmEhnmDCfHE/XQUF+GQfWJsGlLTUzFRRInpl5HctHIFMy5/tMnFjEeSYuAk
fMmrl+mO0jH64ixAlcdPUKgIRKpFwLOBBo11355BtMQp8upBaHppstHPacuyK4FP
ZgV/pJMCgYEA413PH6fbV5D8/Iz9YLnm2T2S8DU8x//uXrUYkKKRUKrqCh7f60M9
7PzH1xql0XvbdZEopI8f3grerEFEmX/YDHrzqsVh5aIvV4+Aliyn5L4aLqQAobRb
vria5C0+aOjv8bwhHrrRqh1qDjPnpJhNc1ybvVo3x73xOfDxZ1ILoTkCgYAZLxut
1/Qq4mboIE6lAOSBj53KNEdrWf/czVG4XFLti0rfI1g3+Pj8sEx0kHbFL1RXBf4o
BKkdJT4IiASdSqieJ5mkFn8g2ROkrj+WO5nFGyOVnp6DNhtg7+ZABC3R4or0SsUk
vIrlfsB/0vGmo54pg05m11cosBGFFWNxLCkbhQKBgQDw3cPCOH7lrWURd0uU5N0K
DvukJg0CYTJPZQtgi+ui6v2t2lTxptActbzRoa6s4TM2jdxVNUigBFWV0i2sj2Sc
Daxzkb07Z+/8hIO1jHzqbReLfP+HJirldSWY7Ju1J+Xm+91EgF+p+71lI8KWy3DG
VrNvWBHvftn6lT4tMcWJoA==
-----END PRIVATE KEY-----
Certificate:
    Data:
        Version: 3 (0x2)
        Serial Number:
            c7:fe:8a:9d:cd:07:06:3b:1f:46:e6:d6:af:21:81:14:4c:cf:17:97
        Signature Algorithm: sha256WithRSAEncryption
        Issuer: C=IE, ST=Laighin, O=openssl-ech, CN=ca
        Validity
            Not Before: Mar 31 13:28:59 2024 GMT
            Not After : Mar 29 13:28:59 2034 GMT
        Subject: C=IE, ST=Laighin, O=openssl-ech, CN=example.com
        Subject Public Key Info:
            Public Key Algorithm: rsaEncryption
                Public-Key: (2048 bit)
                Modulus:
                    00:c2:e0:7b:72:9a:26:81:a4:1d:64:b9:5e:c3:b4:
                    d9:dd:67:e4:2b:4b:b6:8f:8a:2f:b6:fe:d4:87:2d:
                    c8:3c:6b:53:b4:db:4b:b5:53:a7:16:fa:40:b5:9e:
                    6b:07:33:72:fd:c1:91:d3:22:71:84:23:c2:31:b6:
                    1a:73:02:7d:03:f8:e9:c9:c2:26:17:cf:96:e1:64:
                    7c:43:fc:af:6d:dd:7b:83:1b:c4:de:73:8f:13:7e:
                    04:35:15:74:06:46:d5:e5:73:7d:ba:cf:bb:65:6c:
                    b5:40:02:c6:ac:76:d3:d2:89:0c:1b:3d:35:73:10:
                    4e:44:25:48:02:30:d6:e2:5d:52:d2:5d:ea:90:e4:
                    53:eb:59:22:41:c4:33:ed:04:05:74:87:17:3a:74:
                    9f:e6:99:ce:7b:e2:59:43:4a:96:a8:3d:16:9a:c8:
                    1c:6b:0c:7f:67:10:ba:13:62:de:da:9f:df:08:4e:
                    c8:83:2f:2c:38:cb:9b:fa:19:c4:76:a7:a3:15:c3:
                    a7:c4:c3:b7:f3:01:42:a2:3e:a3:87:fe:dd:97:35:
                    16:13:fb:0b:de:72:a9:10:86:7f:b3:5f:d4:eb:fc:
                    05:8f:ef:85:2c:93:6c:24:a8:42:2a:1e:c8:b0:3b:
                    b9:70:84:70:45:5b:ca:b0:38:94:66:d0:ab:af:9f:
                    f2:35
                Exponent: 65537 (0x10001)
        X509v3 extensions:
            X509v3 Basic Constraints: 
                CA:FALSE
            X509v3 Subject Key Identifier: 
                F5:EA:80:42:4E:DC:12:80:67:41:6F:EA:87:30:3E:F6:30:53:E8:C8
            X509v3 Authority Key Identifier: 
                47:02:9C:55:99:30:1E:73:B1:B8:52:55:ED:47:11:80:75:D1:21:63
            X509v3 Subject Alternative Name: 
                DNS:*.example.com, DNS:example.com
    Signature Algorithm: sha256WithRSAEncryption
    Signature Value:
        22:00:22:e4:0c:e2:83:5d:56:c2:61:a1:f1:61:51:37:24:30:
        d2:a8:83:60:68:56:e6:ed:1f:3b:3a:18:78:a0:fb:e5:e6:9d:
        08:3b:90:ad:14:a9:d6:28:97:4f:b8:9f:fe:c1:d6:a1:f7:cc:
        95:ce:e2:1a:3e:8f:81:1c:74:ef:6b:f2:fd:d5:da:8e:74:93:
        3f:44:93:eb:cf:ae:5e:e6:f0:f0:e4:7d:34:63:a8:0a:26:a7:
        9e:1c:41:de:47:52:fb:9a:e8:db:93:de:db:d8:22:bc:1a:f2:
        da:cd:a7:4e:09:9b:51:08:e6:b0:47:76:42:1e:9b:64:7b:5d:
        3b:53:7b:b4:18:30:f3:e4:11:9d:2e:12:a2:e9:9f:35:9b:ed:
        2c:26:08:f7:ef:d2:17:70:d3:33:b1:a7:ca:8f:79:e0:99:69:
        b7:fe:30:26:69:f1:d1:77:37:b4:b3:b3:26:6f:9c:d9:cb:fd:
        68:2d:a0:b7:c0:3f:38:db:18:e5:b5:fe:e7:f3:65:28:33:94:
        0a:7e:91:bd:cf:b7:23:dc:50:ab:0d:12:42:00:16:4e:13:45:
        fb:2f:48:9d:0c:f2:cf:12:0a:ca:73:ea:20:33:0d:6d:19:1e:
        43:86:ae:f6:43:69:9d:01:12:0a:28:d3:81:c1:b1:9e:26:2a:
        54:a9:3e:56
-----BEGIN CERTIFICATE-----
MIIDkDCCAnigAwIBAgIVAMf+ip3NBwY7H0bm1q8hgRRMzxeXMA0GCSqGSIb3DQEB
CwUAMEIxCzAJBgNVBAYTAklFMRAwDgYDVQQIDAdMYWlnaGluMRQwEgYDVQQKDAtv
cGVuc3NsLWVjaDELMAkGA1UEAwwCY2EwHhcNMjQwMzMxMTMyODU5WhcNMzQwMzI5
MTMyODU5WjBLMQswCQYDVQQGEwJJRTEQMA4GA1UECAwHTGFpZ2hpbjEUMBIGA1UE
CgwLb3BlbnNzbC1lY2gxFDASBgNVBAMMC2V4YW1wbGUuY29tMIIBIjANBgkqhkiG
9w0BAQEFAAOCAQ8AMIIBCgKCAQEAwuB7cpomgaQdZLlew7TZ3WfkK0u2j4ovtv7U
hy3IPGtTtNtLtVOnFvpAtZ5rBzNy/cGR0yJxhCPCMbYacwJ9A/jpycImF8+W4WR8
Q/yvbd17gxvE3nOPE34ENRV0BkbV5XN9us+7ZWy1QALGrHbT0okMGz01cxBORCVI
AjDW4l1S0l3qkORT61kiQcQz7QQFdIcXOnSf5pnOe+JZQ0qWqD0Wmsgcawx/ZxC6
E2Le2p/fCE7Igy8sOMub+hnEdqejFcOnxMO38wFCoj6jh/7dlzUWE/sL3nKpEIZ/
s1/U6/wFj++FLJNsJKhCKh7IsDu5cIRwRVvKsDiUZtCrr5/yNQIDAQABo3QwcjAJ
BgNVHRMEAjAAMB0GA1UdDgQWBBT16oBCTtwSgGdBb+qHMD72MFPoyDAfBgNVHSME
GDAWgBRHApxVmTAec7G4UlXtRxGAddEhYzAlBgNVHREEHjAcgg0qLmV4YW1wbGUu
Y29tggtleGFtcGxlLmNvbTANBgkqhkiG9w0BAQsFAAOCAQEAIgAi5Azig11WwmGh
8WFRNyQw0qiDYGhW5u0fOzoYeKD75eadCDuQrRSp1iiXT7if/sHWoffMlc7iGj6P
gRx072vy/dXajnSTP0ST68+uXubw8OR9NGOoCiannhxB3kdS+5ro25Pe29givBry
2s2nTgmbUQjmsEd2Qh6bZHtdO1N7tBgw8+QRnS4SoumfNZvtLCYI9+/SF3DTM7Gn
yo954Jlpt/4wJmnx0Xc3tLOzJm+c2cv9aC2gt8A/ONsY5bX+5/NlKDOUCn6Rvc+3
I9xQqw0SQgAWThNF+y9InQzyzxIKynPqIDMNbRkeQ4au9kNpnQESCijTgcGxniYq
VKk+Vg==
-----END CERTIFICATE-----
