-----BEGIN PRIVATE KEY-----
MIIEvQIBADANBgkqhkiG9w0BAQEFAASCBKcwggSjAgEAAoIBAQC3hYx3fpKDFX1u
NTiMuwP69LKt4uadBV6BzsDwgL4aX/u/kb/KE2sl2IpqDYi4liH1OuEHgodzftJF
Ru8Ak0VUPZkOkZKkCir78+Qd73ABJ7i9vK1B3Ay2FsTS+csXnS3kpFo6NbnWd35r
MUtlTgnymuKfqM54Ti5x2RbPSn78qsCAUWsQgn6xmXoE8xMcj4B5a1wFHvi4iIeu
MGq9JCPsy/vjmfBHcsFbrpHQFdl/xhq1WINT7scTPl5nBXHPJ/z6rj3bHDIES561
5t52OIo7XL8CkC4YI/qaCHdeNStYUofROlrzQdL6UBjOqQ+dDG1IzNTDhTBjaT/t
aJi0Q/LRAgMBAAECggEAEpMukripqSFfcuxplxrlrfye6iktWMa+mEpeLmmFdENz
RmJA5HnfLjMy3UWV6ULu2HSXaqxsO8UiELd7gNYnHf3nFDmpOze5PouisuH1dvR3
hyLF8YTNd4+p58W3J+J1ju8Qn9QoxVuOXNieLjh+GsNQ/UJ3dWdKXaUQoTYD0Nxm
LmUctBzNgtaGQjJtcWJQs1Y+5aD4nnFkZyWa+gcZUpWmZwL6kvgqsoyPS/tMyuLi
26EtDPaJ4yti77ta2IOtp40UQBxW24UfepStUzLxYnN27+2QP3rQOHUoqM8VAG3O
fUeCjTQx9ufrYMg38NloXShAPnA46NV1QOJaRi7PzQKBgQD6Yboo3NYUK3jdQs4U
oC52kbn3ov6ePEDcOG+p7ZD+DPjsWWE2g/oG8d8qrL5NwhpFgQNE+omy0ef+rMZJ
6Oqn00b0Rdgp2cp73RP0XF6CBnuXSNwEDAubiUuGJnFl072MbCXX8W1UEidVIvj7
Ba72PFSLAezDOePVuWlCpbR9RQKBgQC7o8GBRjA/HsNbcKgq9mHdfN5L1UPvzBTF
XUPcKKe70nPwINZMpIAuD1ZSZvG+vCZHyatFYxt3x5pkC6EJFmm1Zao8RUl5jKOA
7hBFo8izS6Bj2TcdW6TBxudfCWeZMWHDEvQKuO/SsvF/SPFXzw04lSxPomnITuAE
7isJgWHaHQKBgGc6m5H1Wp3+PlqbDHQchouEEXQz015R4TvqWL9qnvjfSFHJl/bt
+suaNTRW/C768/Hr+vkZgmQjfs7VVPtr+DMxPHPByBmZHY5r26pH2v8oxRPeijdw
7+g0dtrcRqyA3AllHUUm2Lhss6K6RITaFwSWYxTcukzTNUgMpYVA5GUxAoGAUjPo
ZyD/q/dnMF0HX2L29thobqJsk9Y9V0WHoCCzcwY8wnswRv1eJk+Typ/M0nmM77A6
9zf25Z+tVJz/nIKUJuL2FFdqW/SwAKDKwieBmoLMLlIP4i2u3TGtVSZCm4tVv+dC
wJvKfOzl/ZRQHt7XdO1tLyoA278qRx6r/gsPekUCgYEAkjmiOgGSSDUm7cE3I/UF
6rTg+CaHQUC6dbHudAtrvHXA+hE6lRmBf6bGTagc8nmQYyf1YoJLjad5F1lLj9ja
GsanxIcJpdNp17Q22OILkaNm3kI3cde8D99QBecdQHoxK1FwSoWpnJ/yMpBpDXB5
pJD/vVkQomWOChDK7Ry7gN0=
-----END PRIVATE KEY-----
Certificate:
    Data:
        Version: 3 (0x2)
        Serial Number:
            c7:fe:8a:9d:cd:07:06:3b:1f:46:e6:d6:af:21:81:14:4c:cf:17:98
        Signature Algorithm: sha256WithRSAEncryption
        Issuer: C=IE, ST=Laighin, O=openssl-ech, CN=ca
        Validity
            Not Before: Mar 31 13:28:59 2024 GMT
            Not After : Mar 29 13:28:59 2034 GMT
        Subject: C=IE, ST=Laighin, O=openssl-ech, CN=foo.example.com
        Subject Public Key Info:
            Public Key Algorithm: rsaEncryption
                Public-Key: (2048 bit)
                Modulus:
                    00:b7:85:8c:77:7e:92:83:15:7d:6e:35:38:8c:bb:
                    03:fa:f4:b2:ad:e2:e6:9d:05:5e:81:ce:c0:f0:80:
                    be:1a:5f:fb:bf:91:bf:ca:13:6b:25:d8:8a:6a:0d:
                    88:b8:96:21:f5:3a:e1:07:82:87:73:7e:d2:45:46:
                    ef:00:93:45:54:3d:99:0e:91:92:a4:0a:2a:fb:f3:
                    e4:1d:ef:70:01:27:b8:bd:bc:ad:41:dc:0c:b6:16:
                    c4:d2:f9:cb:17:9d:2d:e4:a4:5a:3a:35:b9:d6:77:
                    7e:6b:31:4b:65:4e:09:f2:9a:e2:9f:a8:ce:78:4e:
                    2e:71:d9:16:cf:4a:7e:fc:aa:c0:80:51:6b:10:82:
                    7e:b1:99:7a:04:f3:13:1c:8f:80:79:6b:5c:05:1e:
                    f8:b8:88:87:ae:30:6a:bd:24:23:ec:cb:fb:e3:99:
                    f0:47:72:c1:5b:ae:91:d0:15:d9:7f:c6:1a:b5:58:
                    83:53:ee:c7:13:3e:5e:67:05:71:cf:27:fc:fa:ae:
                    3d:db:1c:32:04:4b:9e:b5:e6:de:76:38:8a:3b:5c:
                    bf:02:90:2e:18:23:fa:9a:08:77:5e:35:2b:58:52:
                    87:d1:3a:5a:f3:41:d2:fa:50:18:ce:a9:0f:9d:0c:
                    6d:48:cc:d4:c3:85:30:63:69:3f:ed:68:98:b4:43:
                    f2:d1
                Exponent: 65537 (0x10001)
        X509v3 extensions:
            X509v3 Basic Constraints: 
                CA:FALSE
            X509v3 Subject Key Identifier: 
                30:CA:33:97:65:62:67:A4:1C:00:CB:AB:17:25:34:05:0D:E3:C1:7B
            X509v3 Authority Key Identifier: 
                47:02:9C:55:99:30:1E:73:B1:B8:52:55:ED:47:11:80:75:D1:21:63
            X509v3 Subject Alternative Name: 
                DNS:*.foo.example.com, DNS:foo.example.com
    Signature Algorithm: sha256WithRSAEncryption
    Signature Value:
        a5:66:38:cb:08:84:63:b8:b4:3c:cf:01:b6:30:8b:4c:a3:8a:
        1c:79:79:1d:8a:ca:96:0a:6c:10:e1:f7:2e:29:19:b0:7b:14:
        74:59:da:db:7c:a5:56:ba:32:2e:bc:92:80:d4:58:8d:2a:86:
        68:22:91:57:16:e8:92:66:31:5b:35:0c:41:8b:1c:ee:69:cc:
        06:c0:43:7a:05:4b:38:ef:69:e2:ca:66:d4:94:18:8a:18:12:
        f9:6c:46:cd:7c:ad:ff:4b:8a:31:9e:ed:95:a5:f5:6d:1e:0f:
        a2:17:fb:89:17:dc:02:0b:76:08:88:5b:55:43:52:f0:a1:da:
        d6:b1:cd:2a:69:36:5b:96:17:4f:8e:6f:6f:6f:fd:02:ab:04:
        39:c4:7d:62:7a:5b:59:b9:d1:f8:88:94:b0:c9:35:44:dd:8c:
        72:11:c0:c2:44:f4:a1:cb:be:8f:f5:94:cd:6b:89:fd:7c:d9:
        ff:b1:c9:c9:71:0b:f3:fd:47:e7:9a:b2:67:a0:e3:d4:43:31:
        b6:3f:03:96:38:fa:39:4b:53:cb:a6:dd:0e:4e:05:a8:16:85:
        43:b8:b6:41:23:4d:fe:70:bf:19:d1:1d:cf:2d:d2:3b:90:bb:
        82:59:1c:7b:6e:24:71:40:6f:b6:95:4d:86:1e:fa:a8:84:e6:
        d8:3b:29:63
-----BEGIN CERTIFICATE-----
MIIDnDCCAoSgAwIBAgIVAMf+ip3NBwY7H0bm1q8hgRRMzxeYMA0GCSqGSIb3DQEB
CwUAMEIxCzAJBgNVBAYTAklFMRAwDgYDVQQIDAdMYWlnaGluMRQwEgYDVQQKDAtv
cGVuc3NsLWVjaDELMAkGA1UEAwwCY2EwHhcNMjQwMzMxMTMyODU5WhcNMzQwMzI5
MTMyODU5WjBPMQswCQYDVQQGEwJJRTEQMA4GA1UECAwHTGFpZ2hpbjEUMBIGA1UE
CgwLb3BlbnNzbC1lY2gxGDAWBgNVBAMMD2Zvby5leGFtcGxlLmNvbTCCASIwDQYJ
KoZIhvcNAQEBBQADggEPADCCAQoCggEBALeFjHd+koMVfW41OIy7A/r0sq3i5p0F
XoHOwPCAvhpf+7+Rv8oTayXYimoNiLiWIfU64QeCh3N+0kVG7wCTRVQ9mQ6RkqQK
Kvvz5B3vcAEnuL28rUHcDLYWxNL5yxedLeSkWjo1udZ3fmsxS2VOCfKa4p+oznhO
LnHZFs9KfvyqwIBRaxCCfrGZegTzExyPgHlrXAUe+LiIh64war0kI+zL++OZ8Edy
wVuukdAV2X/GGrVYg1PuxxM+XmcFcc8n/PquPdscMgRLnrXm3nY4ijtcvwKQLhgj
+poId141K1hSh9E6WvNB0vpQGM6pD50MbUjM1MOFMGNpP+1omLRD8tECAwEAAaN8
MHowCQYDVR0TBAIwADAdBgNVHQ4EFgQUMMozl2ViZ6QcAMurFyU0BQ3jwXswHwYD
VR0jBBgwFoAURwKcVZkwHnOxuFJV7UcRgHXRIWMwLQYDVR0RBCYwJIIRKi5mb28u
ZXhhbXBsZS5jb22CD2Zvby5leGFtcGxlLmNvbTANBgkqhkiG9w0BAQsFAAOCAQEA
pWY4ywiEY7i0PM8BtjCLTKOKHHl5HYrKlgpsEOH3LikZsHsUdFna23ylVroyLryS
gNRYjSqGaCKRVxbokmYxWzUMQYsc7mnMBsBDegVLOO9p4spm1JQYihgS+WxGzXyt
/0uKMZ7tlaX1bR4Pohf7iRfcAgt2CIhbVUNS8KHa1rHNKmk2W5YXT45vb2/9AqsE
OcR9YnpbWbnR+IiUsMk1RN2MchHAwkT0ocu+j/WUzWuJ/XzZ/7HJyXEL8/1H55qy
Z6Dj1EMxtj8Dljj6OUtTy6bdDk4FqBaFQ7i2QSNN/nC/GdEdzy3SO5C7glkce24k
cUBvtpVNhh76qITm2DspYw==
-----END CERTIFICATE-----
